target datalayout = "e-m:e-p270:32:32-p271:32:32-p272:64:64-i64:64-i128:128-f80:128-n8:16:32:64-S128"
target triple = "x86_64-pc-linux-gnu"

%struct.ZSTD_customMem = type { ptr, ptr, ptr }
%struct.ZSTD_frameParameters = type { i32, i32, i32 }
%struct.ZSTD_compressionParameters = type { i32, i32, i32, i32, i32, i32, i32 }
%struct.ZSTD_CCtx_params_s = type { i32, %struct.ZSTD_compressionParameters, %struct.ZSTD_frameParameters, i32, i32, i64, i32, i32, i32, i32, i64, i32, i32, %struct.ldmParams_t, i32, i32, i32, i32, i32, i32, i32, i32, %struct.ZSTD_customMem, i32, i32, i32, i64, i32 }
%struct.ldmParams_t = type { i32, i32, i32, i32, i32, i32 }
%struct.ZSTD_cwksp = type { ptr, ptr, ptr, ptr, ptr, ptr, ptr, i8, i32, i32, i32 }
%struct.ZSTD_window_t = type { ptr, ptr, ptr, i32, i32, i32 }
%struct.ZSTD_matchState_t = type { %struct.ZSTD_window_t, i32, i32, i32, i32, ptr, [8 x i32], i64, i32, ptr, ptr, ptr, i32, i32, %struct.optState_t, ptr, %struct.ZSTD_compressionParameters, ptr, i32, i32 }
%struct.optState_t = type { ptr, ptr, ptr, ptr, ptr, ptr, i32, i32, i32, i32, i32, i32, i32, i32, i32, ptr, i32 }
%struct.ZSTD_compressedBlockState_t = type { %struct.ZSTD_entropyCTables_t, [3 x i32] }
%struct.ZSTD_entropyCTables_t = type { %struct.ZSTD_hufCTables_t, %struct.ZSTD_fseCTables_t }
%struct.ZSTD_hufCTables_t = type { [257 x i64], i32 }
%struct.ZSTD_fseCTables_t = type { [193 x i32], [363 x i32], [329 x i32], i32, i32, i32 }
%struct.ZSTD_CDict_s = type { ptr, i64, i32, ptr, %struct.ZSTD_cwksp, %struct.ZSTD_matchState_t, %struct.ZSTD_compressedBlockState_t, %struct.ZSTD_customMem, i32, i32, i32 }

@repStartValue = internal constant [3 x i32] [i32 1, i32 4, i32 8], align 4

; Function Attrs: nounwind uwtable
define internal void @ZSTD_cwksp_assert_internal_consistency(ptr noundef %0) #0 {
  %2 = alloca ptr, align 8
  store ptr %0, ptr %2, align 8
  ret void
}

; Function Attrs: nounwind uwtable
define internal i32 @ERR_isError(i64 noundef %0) #0 {
  %2 = alloca i64, align 8
  store i64 %0, ptr %2, align 8
  %3 = load i64, ptr %2, align 8
  %4 = icmp ugt i64 %3, -120
  %5 = zext i1 %4 to i32
  ret i32 %5
}

; Function Attrs: nounwind uwtable
define dso_local void @ZSTD_reset_compressedBlockState(ptr noundef %0) #0 {
  %2 = alloca ptr, align 8
  %3 = alloca i32, align 4
  store ptr %0, ptr %2, align 8
  store i32 0, ptr %3, align 4
  br label %4

4:                                                ; preds = %17, %1
  %5 = load i32, ptr %3, align 4
  %6 = icmp slt i32 %5, 3
  br i1 %6, label %7, label %20

7:                                                ; preds = %4
  %8 = load i32, ptr %3, align 4
  %9 = sext i32 %8 to i64
  %10 = getelementptr inbounds [3 x i32], ptr @repStartValue, i64 0, i64 %9
  %11 = load i32, ptr %10, align 4
  %12 = load ptr, ptr %2, align 8
  %13 = getelementptr inbounds %struct.ZSTD_compressedBlockState_t, ptr %12, i32 0, i32 1
  %14 = load i32, ptr %3, align 4
  %15 = sext i32 %14 to i64
  %16 = getelementptr inbounds [3 x i32], ptr %13, i64 0, i64 %15
  store i32 %11, ptr %16, align 4
  br label %17

17:                                               ; preds = %7
  %18 = load i32, ptr %3, align 4
  %19 = add nsw i32 %18, 1
  store i32 %19, ptr %3, align 4
  br label %4, !llvm.loop !12

20:                                               ; preds = %4
  %21 = load ptr, ptr %2, align 8
  %22 = getelementptr inbounds %struct.ZSTD_compressedBlockState_t, ptr %21, i32 0, i32 0
  %23 = getelementptr inbounds %struct.ZSTD_entropyCTables_t, ptr %22, i32 0, i32 0
  %24 = getelementptr inbounds %struct.ZSTD_hufCTables_t, ptr %23, i32 0, i32 1
  store i32 0, ptr %24, align 8
  %25 = load ptr, ptr %2, align 8
  %26 = getelementptr inbounds %struct.ZSTD_compressedBlockState_t, ptr %25, i32 0, i32 0
  %27 = getelementptr inbounds %struct.ZSTD_entropyCTables_t, ptr %26, i32 0, i32 1
  %28 = getelementptr inbounds %struct.ZSTD_fseCTables_t, ptr %27, i32 0, i32 3
  store i32 0, ptr %28, align 4
  %29 = load ptr, ptr %2, align 8
  %30 = getelementptr inbounds %struct.ZSTD_compressedBlockState_t, ptr %29, i32 0, i32 0
  %31 = getelementptr inbounds %struct.ZSTD_entropyCTables_t, ptr %30, i32 0, i32 1
  %32 = getelementptr inbounds %struct.ZSTD_fseCTables_t, ptr %31, i32 0, i32 4
  store i32 0, ptr %32, align 8
  %33 = load ptr, ptr %2, align 8
  %34 = getelementptr inbounds %struct.ZSTD_compressedBlockState_t, ptr %33, i32 0, i32 0
  %35 = getelementptr inbounds %struct.ZSTD_entropyCTables_t, ptr %34, i32 0, i32 1
  %36 = getelementptr inbounds %struct.ZSTD_fseCTables_t, ptr %35, i32 0, i32 5
  store i32 0, ptr %36, align 4
  ret void
}

; Function Attrs: nounwind uwtable
define internal ptr @ZSTD_cwksp_reserve_object(ptr noundef %0, i64 noundef %1) #0 {
  %3 = alloca ptr, align 8
  %4 = alloca ptr, align 8
  %5 = alloca i64, align 8
  %6 = alloca i64, align 8
  %7 = alloca ptr, align 8
  %8 = alloca ptr, align 8
  store ptr %0, ptr %4, align 8
  store i64 %1, ptr %5, align 8
  %9 = load i64, ptr %5, align 8
  %10 = call i64 @ZSTD_cwksp_align(i64 noundef %9, i64 noundef 8)
  store i64 %10, ptr %6, align 8
  %11 = load ptr, ptr %4, align 8
  %12 = getelementptr inbounds %struct.ZSTD_cwksp, ptr %11, i32 0, i32 2
  %13 = load ptr, ptr %12, align 8
  store ptr %13, ptr %7, align 8
  %14 = load ptr, ptr %7, align 8
  %15 = load i64, ptr %6, align 8
  %16 = getelementptr inbounds i8, ptr %14, i64 %15
  store ptr %16, ptr %8, align 8
  %17 = load ptr, ptr %4, align 8
  call void @ZSTD_cwksp_assert_internal_consistency(ptr noundef %17)
  %18 = load ptr, ptr %4, align 8
  %19 = getelementptr inbounds %struct.ZSTD_cwksp, ptr %18, i32 0, i32 9
  %20 = load i32, ptr %19, align 8
  %21 = icmp ne i32 %20, 0
  br i1 %21, label %28, label %22

22:                                               ; preds = %2
  %23 = load ptr, ptr %8, align 8
  %24 = load ptr, ptr %4, align 8
  %25 = getelementptr inbounds %struct.ZSTD_cwksp, ptr %24, i32 0, i32 1
  %26 = load ptr, ptr %25, align 8
  %27 = icmp ugt ptr %23, %26
  br i1 %27, label %28, label %31

28:                                               ; preds = %22, %2
  %29 = load ptr, ptr %4, align 8
  %30 = getelementptr inbounds %struct.ZSTD_cwksp, ptr %29, i32 0, i32 7
  store i8 1, ptr %30, align 8
  store ptr null, ptr %3, align 8
  br label %42

31:                                               ; preds = %22
  %32 = load ptr, ptr %8, align 8
  %33 = load ptr, ptr %4, align 8
  %34 = getelementptr inbounds %struct.ZSTD_cwksp, ptr %33, i32 0, i32 2
  store ptr %32, ptr %34, align 8
  %35 = load ptr, ptr %8, align 8
  %36 = load ptr, ptr %4, align 8
  %37 = getelementptr inbounds %struct.ZSTD_cwksp, ptr %36, i32 0, i32 3
  store ptr %35, ptr %37, align 8
  %38 = load ptr, ptr %8, align 8
  %39 = load ptr, ptr %4, align 8
  %40 = getelementptr inbounds %struct.ZSTD_cwksp, ptr %39, i32 0, i32 4
  store ptr %38, ptr %40, align 8
  %41 = load ptr, ptr %7, align 8
  store ptr %41, ptr %3, align 8
  br label %42

42:                                               ; preds = %31, %28
  %43 = load ptr, ptr %3, align 8
  ret ptr %43
}

; Function Attrs: nounwind uwtable
define internal i64 @ZSTD_cwksp_align(i64 noundef %0, i64 noundef %1) #0 {
  %3 = alloca i64, align 8
  %4 = alloca i64, align 8
  %5 = alloca i64, align 8
  store i64 %0, ptr %3, align 8
  store i64 %1, ptr %4, align 8
  %6 = load i64, ptr %4, align 8
  %7 = sub i64 %6, 1
  store i64 %7, ptr %5, align 8
  %8 = load i64, ptr %3, align 8
  %9 = load i64, ptr %5, align 8
  %10 = add i64 %8, %9
  %11 = load i64, ptr %5, align 8
  %12 = xor i64 %11, -1
  %13 = and i64 %10, %12
  ret i64 %13
}

; Function Attrs: nounwind uwtable
define internal i64 @ZSTD_initCDict_internal(ptr noundef %0, ptr noundef %1, i64 noundef %2, i32 noundef %3, i32 noundef %4, ptr noundef byval(%struct.ZSTD_CCtx_params_s) align 8 %5) #0 {
  %7 = alloca i64, align 8
  %8 = alloca ptr, align 8
  %9 = alloca ptr, align 8
  %10 = alloca i64, align 8
  %11 = alloca i32, align 4
  %12 = alloca i32, align 4
  %13 = alloca ptr, align 8
  %14 = alloca i64, align 8
  %15 = alloca i64, align 8
  %16 = alloca i64, align 8
  store ptr %0, ptr %8, align 8
  store ptr %1, ptr %9, align 8
  store i64 %2, ptr %10, align 8
  store i32 %3, ptr %11, align 4
  store i32 %4, ptr %12, align 4
  %17 = load ptr, ptr %8, align 8
  %18 = getelementptr inbounds %struct.ZSTD_CDict_s, ptr %17, i32 0, i32 5
  %19 = getelementptr inbounds %struct.ZSTD_matchState_t, ptr %18, i32 0, i32 16
  %20 = getelementptr inbounds %struct.ZSTD_CCtx_params_s, ptr %5, i32 0, i32 1
  call void @llvm.memcpy.p0.p0.i64(ptr align 8 %19, ptr align 4 %20, i64 28, i1 false)
  %21 = getelementptr inbounds %struct.ZSTD_CCtx_params_s, ptr %5, i32 0, i32 14
  %22 = load i32, ptr %21, align 8
  %23 = load ptr, ptr %8, align 8
  %24 = getelementptr inbounds %struct.ZSTD_CDict_s, ptr %23, i32 0, i32 5
  %25 = getelementptr inbounds %struct.ZSTD_matchState_t, ptr %24, i32 0, i32 13
  store i32 %22, ptr %25, align 4
  %26 = load i32, ptr %11, align 4
  %27 = icmp eq i32 %26, 1
  br i1 %27, label %34, label %28

28:                                               ; preds = %6
  %29 = load ptr, ptr %9, align 8
  %30 = icmp ne ptr %29, null
  br i1 %30, label %31, label %34

31:                                               ; preds = %28
  %32 = load i64, ptr %10, align 8
  %33 = icmp ne i64 %32, 0
  br i1 %33, label %38, label %34

34:                                               ; preds = %31, %28, %6
  %35 = load ptr, ptr %9, align 8
  %36 = load ptr, ptr %8, align 8
  %37 = getelementptr inbounds %struct.ZSTD_CDict_s, ptr %36, i32 0, i32 0
  store ptr %35, ptr %37, align 8
  br label %54

38:                                               ; preds = %31
  %39 = load ptr, ptr %8, align 8
  %40 = getelementptr inbounds %struct.ZSTD_CDict_s, ptr %39, i32 0, i32 4
  %41 = load i64, ptr %10, align 8
  %42 = call i64 @ZSTD_cwksp_align(i64 noundef %41, i64 noundef 8)
  %43 = call ptr @ZSTD_cwksp_reserve_object(ptr noundef %40, i64 noundef %42)
  store ptr %43, ptr %13, align 8
  %44 = load ptr, ptr %13, align 8
  %45 = icmp ne ptr %44, null
  br i1 %45, label %47, label %46

46:                                               ; preds = %38
  store i64 -64, ptr %7, align 8
  br label %117

47:                                               ; preds = %38
  %48 = load ptr, ptr %13, align 8
  %49 = load ptr, ptr %8, align 8
  %50 = getelementptr inbounds %struct.ZSTD_CDict_s, ptr %49, i32 0, i32 0
  store ptr %48, ptr %50, align 8
  %51 = load ptr, ptr %13, align 8
  %52 = load ptr, ptr %9, align 8
  %53 = load i64, ptr %10, align 8
  call void @llvm.memcpy.p0.p0.i64(ptr align 1 %51, ptr align 1 %52, i64 %53, i1 false)
  br label %54

54:                                               ; preds = %47, %34
  %55 = load i64, ptr %10, align 8
  %56 = load ptr, ptr %8, align 8
  %57 = getelementptr inbounds %struct.ZSTD_CDict_s, ptr %56, i32 0, i32 1
  store i64 %55, ptr %57, align 8
  %58 = load i32, ptr %12, align 4
  %59 = load ptr, ptr %8, align 8
  %60 = getelementptr inbounds %struct.ZSTD_CDict_s, ptr %59, i32 0, i32 2
  store i32 %58, ptr %60, align 8
  %61 = load ptr, ptr %8, align 8
  %62 = getelementptr inbounds %struct.ZSTD_CDict_s, ptr %61, i32 0, i32 4
  %63 = call ptr @ZSTD_cwksp_reserve_object(ptr noundef %62, i64 noundef 8704)
  %64 = load ptr, ptr %8, align 8
  %65 = getelementptr inbounds %struct.ZSTD_CDict_s, ptr %64, i32 0, i32 3
  store ptr %63, ptr %65, align 8
  %66 = load ptr, ptr %8, align 8
  %67 = getelementptr inbounds %struct.ZSTD_CDict_s, ptr %66, i32 0, i32 6
  call void @ZSTD_reset_compressedBlockState(ptr noundef %67)
  br label %68

68:                                               ; preds = %54
  %69 = load ptr, ptr %8, align 8
  %70 = getelementptr inbounds %struct.ZSTD_CDict_s, ptr %69, i32 0, i32 5
  %71 = load ptr, ptr %8, align 8
  %72 = getelementptr inbounds %struct.ZSTD_CDict_s, ptr %71, i32 0, i32 4
  %73 = getelementptr inbounds %struct.ZSTD_CCtx_params_s, ptr %5, i32 0, i32 1
  %74 = getelementptr inbounds %struct.ZSTD_CCtx_params_s, ptr %5, i32 0, i32 20
  %75 = load i32, ptr %74, align 8
  %76 = call i64 @ZSTD_reset_matchState(ptr noundef %70, ptr noundef %72, ptr noundef %73, i32 noundef %75, i32 noundef 0, i32 noundef 1, i32 noundef 0)
  store i64 %76, ptr %14, align 8
  %77 = load i64, ptr %14, align 8
  %78 = call i32 @ERR_isError(i64 noundef %77)
  %79 = icmp ne i32 %78, 0
  br i1 %79, label %80, label %82

80:                                               ; preds = %68
  %81 = load i64, ptr %14, align 8
  store i64 %81, ptr %7, align 8
  br label %117

82:                                               ; preds = %68
  br label %83

83:                                               ; preds = %82
  %84 = getelementptr inbounds %struct.ZSTD_CCtx_params_s, ptr %5, i32 0, i32 3
  store i32 3, ptr %84, align 4
  %85 = getelementptr inbounds %struct.ZSTD_CCtx_params_s, ptr %5, i32 0, i32 2
  %86 = getelementptr inbounds %struct.ZSTD_frameParameters, ptr %85, i32 0, i32 0
  store i32 1, ptr %86, align 8
  %87 = load ptr, ptr %8, align 8
  %88 = getelementptr inbounds %struct.ZSTD_CDict_s, ptr %87, i32 0, i32 6
  %89 = load ptr, ptr %8, align 8
  %90 = getelementptr inbounds %struct.ZSTD_CDict_s, ptr %89, i32 0, i32 5
  %91 = load ptr, ptr %8, align 8
  %92 = getelementptr inbounds %struct.ZSTD_CDict_s, ptr %91, i32 0, i32 4
  %93 = load ptr, ptr %8, align 8
  %94 = getelementptr inbounds %struct.ZSTD_CDict_s, ptr %93, i32 0, i32 0
  %95 = load ptr, ptr %94, align 8
  %96 = load ptr, ptr %8, align 8
  %97 = getelementptr inbounds %struct.ZSTD_CDict_s, ptr %96, i32 0, i32 1
  %98 = load i64, ptr %97, align 8
  %99 = load i32, ptr %12, align 4
  %100 = load ptr, ptr %8, align 8
  %101 = getelementptr inbounds %struct.ZSTD_CDict_s, ptr %100, i32 0, i32 3
  %102 = load ptr, ptr %101, align 8
  %103 = call i64 @ZSTD_compress_insertDictionary(ptr noundef %88, ptr noundef %90, ptr noundef null, ptr noundef %92, ptr noundef %5, ptr noundef %95, i64 noundef %98, i32 noundef %99, i32 noundef 1, i32 noundef 1, ptr noundef %102)
  store i64 %103, ptr %15, align 8
  br label %104

104:                                              ; preds = %83
  %105 = load i64, ptr %15, align 8
  store i64 %105, ptr %16, align 8
  %106 = load i64, ptr %16, align 8
  %107 = call i32 @ERR_isError(i64 noundef %106)
  %108 = icmp ne i32 %107, 0
  br i1 %108, label %109, label %111

109:                                              ; preds = %104
  %110 = load i64, ptr %16, align 8
  store i64 %110, ptr %7, align 8
  br label %117

111:                                              ; preds = %104
  br label %112

112:                                              ; preds = %111
  %113 = load i64, ptr %15, align 8
  %114 = trunc i64 %113 to i32
  %115 = load ptr, ptr %8, align 8
  %116 = getelementptr inbounds %struct.ZSTD_CDict_s, ptr %115, i32 0, i32 8
  store i32 %114, ptr %116, align 8
  store i64 0, ptr %7, align 8
  br label %117

117:                                              ; preds = %112, %109, %80, %46
  %118 = load i64, ptr %7, align 8
  ret i64 %118
}