; Function Attrs: nounwind uwtable
define internal fastcc range(i64 -119, 1) i64 @ZSTD_initCDict_internal(ptr noundef initializes((244, 248), (360, 388)) %0, ptr noundef %1, i64 noundef %2, i32 noundef %3, i32 noundef %4, ptr noundef byval(%struct.ZSTD_CCtx_params_s) align 8 %5) unnamed_addr #1 {
  %7 = getelementptr inbounds nuw i8, ptr %0, i64 104
  %8 = getelementptr inbounds nuw i8, ptr %0, i64 360
  %9 = getelementptr inbounds nuw i8, ptr %5, i64 4
  call void @llvm.memcpy.p0.p0.i64(ptr noundef nonnull align 8 dereferenceable(28) %8, ptr noundef nonnull align 4 dereferenceable(28) %9, i64 28, i1 false)
  %10 = getelementptr inbounds nuw i8, ptr %5, i64 120
  %11 = load i32, ptr %10, align 8
  %12 = getelementptr inbounds nuw i8, ptr %0, i64 244
  store i32 %11, ptr %12, align 4
  %13 = icmp ne i32 %3, 1
  %14 = icmp ne ptr %1, null
  %or.cond = and i1 %14, %13
  %15 = icmp ne i64 %2, 0
  %or.cond3 = and i1 %15, %or.cond
  br i1 %or.cond3, label %17, label %16

16:                                               ; preds = %6
  store ptr %1, ptr %0, align 8
  br label %33

17:                                               ; preds = %6
  %18 = add i64 %2, 7
  %19 = and i64 %18, -8
  %20 = getelementptr inbounds nuw i8, ptr %0, i64 48
  %21 = load ptr, ptr %20, align 8
  %22 = getelementptr inbounds i8, ptr %21, i64 %19
  %23 = getelementptr inbounds nuw i8, ptr %0, i64 96
  %24 = load i32, ptr %23, align 8
  %.not.i = icmp eq i32 %24, 0
  br i1 %.not.i, label %25, label %ZSTD_cwksp_reserve_object.exit.thread

25:                                               ; preds = %17
  %26 = getelementptr inbounds nuw i8, ptr %0, i64 40
  %27 = load ptr, ptr %26, align 8
  %28 = icmp ugt ptr %22, %27
  br i1 %28, label %ZSTD_cwksp_reserve_object.exit.thread, label %ZSTD_cwksp_reserve_object.exit

ZSTD_cwksp_reserve_object.exit.thread:            ; preds = %17, %25
  %29 = getelementptr inbounds nuw i8, ptr %0, i64 88
  store i8 1, ptr %29, align 8
  br label %73

ZSTD_cwksp_reserve_object.exit:                   ; preds = %25
  store ptr %22, ptr %20, align 8
  %30 = getelementptr inbounds nuw i8, ptr %0, i64 56
  store ptr %22, ptr %30, align 8
  %31 = getelementptr inbounds nuw i8, ptr %0, i64 64
  store ptr %22, ptr %31, align 8
  %.not = icmp eq ptr %21, null
  br i1 %.not, label %73, label %32

32:                                               ; preds = %ZSTD_cwksp_reserve_object.exit
  store ptr %21, ptr %0, align 8
  tail call void @llvm.memcpy.p0.p0.i64(ptr nonnull align 1 %21, ptr nonnull align 1 %1, i64 %2, i1 false)
  br label %33

33:                                               ; preds = %32, %16
  %34 = getelementptr inbounds nuw i8, ptr %0, i64 8
  store i64 %2, ptr %34, align 8
  %35 = getelementptr inbounds nuw i8, ptr %0, i64 16
  store i32 %4, ptr %35, align 8
  %36 = getelementptr inbounds nuw i8, ptr %0, i64 32
  %37 = getelementptr inbounds nuw i8, ptr %0, i64 48
  %38 = load ptr, ptr %37, align 8
  %39 = getelementptr inbounds nuw i8, ptr %38, i64 8704
  %40 = getelementptr inbounds nuw i8, ptr %0, i64 96
  %41 = load i32, ptr %40, align 8
  %.not.i46 = icmp eq i32 %41, 0
  br i1 %.not.i46, label %42, label %46

42:                                               ; preds = %33
  %43 = getelementptr inbounds nuw i8, ptr %0, i64 40
  %44 = load ptr, ptr %43, align 8
  %45 = icmp ugt ptr %39, %44
  br i1 %45, label %46, label %48

46:                                               ; preds = %42, %33
  %47 = getelementptr inbounds nuw i8, ptr %0, i64 88
  store i8 1, ptr %47, align 8
  br label %ZSTD_cwksp_reserve_object.exit48

48:                                               ; preds = %42
  store ptr %39, ptr %37, align 8
  %49 = getelementptr inbounds nuw i8, ptr %0, i64 56
  store ptr %39, ptr %49, align 8
  %50 = getelementptr inbounds nuw i8, ptr %0, i64 64
  store ptr %39, ptr %50, align 8
  br label %ZSTD_cwksp_reserve_object.exit48

ZSTD_cwksp_reserve_object.exit48:                 ; preds = %46, %48
  %.0.i47 = phi ptr [ null, %46 ], [ %38, %48 ]
  %51 = getelementptr inbounds nuw i8, ptr %0, i64 24
  store ptr %.0.i47, ptr %51, align 8
  %52 = getelementptr inbounds nuw i8, ptr %0, i64 6024
  tail call void @llvm.memcpy.p0.p0.i64(ptr noundef nonnull align 4 dereferenceable(12) %52, ptr noundef nonnull align 4 dereferenceable(12) @repStartValue, i64 12, i1 false)
  %53 = getelementptr inbounds nuw i8, ptr %0, i64 2464
  store i32 0, ptr %53, align 8
  %54 = getelementptr inbounds nuw i8, ptr %0, i64 6012
  store i32 0, ptr %54, align 4
  %55 = getelementptr inbounds nuw i8, ptr %0, i64 6016
  store i32 0, ptr %55, align 8
  %56 = getelementptr inbounds nuw i8, ptr %0, i64 6020
  store i32 0, ptr %56, align 4
  %57 = getelementptr inbounds nuw i8, ptr %5, i64 144
  %58 = load i32, ptr %57, align 8
  %59 = call fastcc i64 @ZSTD_reset_matchState(ptr noundef nonnull %7, ptr noundef nonnull %36, ptr noundef nonnull %9, i32 noundef %58, i32 noundef 0, i32 noundef 1, i32 noundef 0)
  %60 = icmp ult i64 %59, -119
  br i1 %60, label %61, label %73

61:                                               ; preds = %ZSTD_cwksp_reserve_object.exit48
  %62 = getelementptr inbounds nuw i8, ptr %0, i64 408
  %63 = getelementptr inbounds nuw i8, ptr %5, i64 44
  store i32 3, ptr %63, align 4
  %64 = getelementptr inbounds nuw i8, ptr %5, i64 32
  store i32 1, ptr %64, align 8
  %65 = load ptr, ptr %0, align 8
  %66 = load i64, ptr %34, align 8
  %67 = load ptr, ptr %51, align 8
  %68 = call fastcc i64 @ZSTD_compress_insertDictionary(ptr noundef nonnull %62, ptr noundef nonnull %7, ptr noundef null, ptr noundef nonnull %36, ptr noundef nonnull %5, ptr noundef %65, i64 noundef %66, i32 noundef %4, i32 noundef 1, i32 noundef 1, ptr noundef %67)
  %69 = icmp ult i64 %68, -119
  br i1 %69, label %70, label %73

70:                                               ; preds = %61
  %71 = trunc i64 %68 to i32
  %72 = getelementptr inbounds nuw i8, ptr %0, i64 6064
  store i32 %71, ptr %72, align 8
  br label %73

73:                                               ; preds = %ZSTD_cwksp_reserve_object.exit.thread, %61, %ZSTD_cwksp_reserve_object.exit48, %ZSTD_cwksp_reserve_object.exit, %70
  %.0 = phi i64 [ 0, %70 ], [ -64, %ZSTD_cwksp_reserve_object.exit ], [ %59, %ZSTD_cwksp_reserve_object.exit48 ], [ %68, %61 ], [ -64, %ZSTD_cwksp_reserve_object.exit.thread ]
  ret i64 %.0
}